Certificate:
    Data:
        Version: 3 (0x2)
        Serial Number:
            d2:30:68:4e:ec:ed:ca:dd:e9:b2:8f:eb
        Signature Algorithm: sha384WithRSAEncryption
        Issuer: C=HU, ST=Budapest, L=Budapest, O=CrySyS Lab HomeWork, OU=CrySyS Lab HomeWork, CN=CA
        Validity
            Not Before: Jan  1 01:01:01 2016 GMT
            Not After : Apr 15 12:07:24 2023 GMT
        Subject: C=HU, ST=Budapest, O=CrySyS Lab HomeWork, OU=CrySyS Lab HomeWork, CN=Z8WK8D40
        Subject Public Key Info:
            Public Key Algorithm: rsaEncryption
                RSA Public-Key: (2048 bit)
                Modulus:
                    00:d1:25:7f:c9:d1:93:fe:28:82:f9:85:aa:4a:09:
                    06:71:ab:71:12:28:c0:af:58:25:7e:c3:1e:cb:55:
                    d3:60:38:6b:b9:24:54:bb:22:ac:2b:af:f3:50:4b:
                    9d:f4:e6:8c:bb:73:74:51:ff:b0:1c:1d:cc:d2:7d:
                    95:0f:43:cb:a4:05:72:ac:da:97:7e:e9:e9:a5:a8:
                    60:53:11:44:53:97:4b:06:5e:f7:a3:dd:57:db:cf:
                    ff:5e:f3:fb:5d:29:ca:81:0e:fd:eb:58:c1:a4:9e:
                    a7:29:d2:86:49:f9:d4:14:fc:db:1f:34:35:b0:e6:
                    0b:ba:93:c5:3d:c2:2a:6a:a8:b7:71:e6:47:2e:c3:
                    cb:cd:33:f7:90:e1:04:71:79:0c:7f:69:db:6e:27:
                    8f:96:26:75:6e:2c:0a:98:72:ed:13:14:ea:ab:c2:
                    a6:f5:91:dc:76:d5:b4:d0:76:48:4f:79:c5:c1:1c:
                    98:83:45:14:19:3b:55:9e:11:df:0f:8a:9a:70:98:
                    9e:c9:80:55:9c:99:d2:ba:ca:26:51:8e:03:08:a7:
                    88:93:11:91:1f:d6:bb:e7:77:60:05:a2:e2:8d:ed:
                    dc:7b:01:fe:ad:bc:11:2e:94:6e:94:1e:dd:d3:3c:
                    0a:fe:77:24:a8:ff:8a:3d:3e:5e:31:d9:8c:d8:33:
                    f3:a1
                Exponent: 65537 (0x10001)
        X509v3 extensions:
            X509v3 Basic Constraints: 
                CA:FALSE
            X509v3 Subject Key Identifier: 
                CC:B5:EC:75:11:BB:35:B7:37:78:F3:E2:1B:11:FA:9B:2A:56:A9:C6
            X509v3 Authority Key Identifier: 
                keyid:E2:C2:3A:A1:47:12:83:97:51:A8:13:51:84:85:9D:E6:EA:72:15:67
                DirName:/C=HU/ST=Budapest/L=Budapest/O=CrySyS Lab HomeWork/OU=CrySyS Lab HomeWork/CN=CA
                serial:FA:1D:5D:08:D3:F8:F5:5D

    Signature Algorithm: sha384WithRSAEncryption
         2c:aa:64:d7:dc:66:50:1d:e3:54:11:d8:78:7c:b4:7f:83:21:
         b8:89:88:df:b6:5c:ad:c6:c6:8d:da:b8:e9:d8:2d:50:39:1e:
         ec:d1:4e:08:ad:b1:c3:07:5f:dc:d8:a7:bf:a1:ad:1a:d2:b8:
         a3:d8:aa:54:b9:b3:63:a8:17:97:2e:99:1d:fb:10:4b:d9:c2:
         01:5a:20:43:d0:76:cc:fc:5a:05:4d:5c:1b:c5:57:fd:95:c7:
         53:c8:e6:aa:27:3a:5f:3d:58:5a:ce:8e:31:e3:41:a6:63:d9:
         3a:af:83:64:37:29:bb:bd:6a:2f:53:22:d2:a3:8c:28:1e:d3:
         5f:7a:56:ef:1c:4c:78:5a:2e:f7:72:ca:26:4f:72:58:50:5e:
         6d:04:ca:21:63:88:76:77:be:a2:9b:4e:c0:96:9d:e1:f0:55:
         57:c0:f8:7b:88:9e:82:a1:9e:d1:18:53:5a:82:83:22:b4:87:
         1f:b5:60:80:da:da:b9:df:f5:16:f5:9e:93:3f:5e:29:be:42:
         d2:00:2d:f9:56:a4:df:99:21:ee:c4:45:96:6c:b8:4f:b3:3e:
         2a:66:80:13:cc:5d:af:ad:a3:99:7a:08:6b:89:03:de:e8:10:
         00:c6:18:88:ec:bd:57:c5:6a:a3:1f:a2:c3:e0:c8:57:21:27:
         9c:c9:b6:b7:40:c4:42:32:36:97:96:f8:45:c6:1e:ed:15:05:
         36:9e:6b:0e:5d:18:fa:ff:c0:ae:76:11:87:d8:26:97:7f:3d:
         65:9c:45:6a:b6:c7:08:94:d3:9e:ef:5d:3e:53:94:00:6d:bc:
         62:6b:c0:af:f8:b5:21:07:83:07:42:ad:cb:8e:81:95:27:76:
         54:bf:a8:79:08:ce:a4:58:05:ed:bb:15:3a:92:ab:f4:3c:69:
         9d:21:18:3e:65:1f:20:53:61:cf:24:cc:28:83:e5:d7:12:60:
         07:cf:17:26:cc:9e:c3:3d:14:8e:82:10:e8:7e:05:b1:42:5a:
         10:00:0d:42:00:78:3c:ea:dc:48:85:bb:15:55:fd:6c:0b:d7:
         5b:ab:06:da:20:52:59:1f:15:f9:27:f4:21:ed:29:c3:8e:1a:
         67:1b:ac:8d:16:b0:6b:a0:2d:c9:6f:aa:67:10:82:d7:8b:ad:
         56:e6:2c:33:25:23:0c:6c:e3:4b:8d:19:a2:cc:d5:cc:44:95:
         fa:da:da:d7:82:1e:ef:75:9d:ce:e1:ad:d7:96:8b:0d:a1:b0:
         6c:49:8a:36:c6:fe:58:85:2a:e1:7b:88:26:5e:19:2a:2a:46:
         7c:2a:ad:b9:e1:9a:7a:3a:8d:71:eb:dd:fb:10:9c:25:90:4a:
         0c:8b:11:b9:3d:89:1b:0a:1e:45:83:be:30:62:5f:a2:15:29:
         eb:d1:31:6e:b6:fb:18:7a:4f:22:ff:5a:57:ce:5f:1f:ac:0f:
         be:96:30:60:31:15:63:28:3a:93:8a:1d:52:0c:9e:08:eb:0c:
         e5:7f:41:a1:d5:86:e5:f1:24:c0:a6:ce:28:a4:bd:1a:55:5d:
         1c:a1:50:97:41:37:d4:2d:73:c5:92:54:c8:43:db:53:56:16:
         5f:27:76:da:85:77:47:b1:39:85:fd:00:a8:46:bb:f0:1d:b2:
         55:6a:12:7a:8c:16:11:5a:ef:62:00:c4:99:45:24:ea:a2:b4:
         74:5b:fd:bd:8f:79:28
-----BEGIN CERTIFICATE-----
MIIFzzCCAzqgAwIBAgINANIwaE7s7crd6bKP6zANBgkqhkiG9w0BAQwFADB8MQsw
CQYDVQQGEwJIVTERMA8GA1UECBMIQnVkYXBlc3QxETAPBgNVBAcTCEJ1ZGFwZXN0
MRwwGgYDVQQKExNDcnlTeVMgTGFiIEhvbWVXb3JrMRwwGgYDVQQLExNDcnlTeVMg
TGFiIEhvbWVXb3JrMQswCQYDVQQDEwJDQTAeFw0xNjAxMDEwMTAxMDFaFw0yMzA0
MTUxMjA3MjRaMG8xCzAJBgNVBAYTAkhVMREwDwYDVQQIEwhCdWRhcGVzdDEcMBoG
A1UEChMTQ3J5U3lTIExhYiBIb21lV29yazEcMBoGA1UECxMTQ3J5U3lTIExhYiBI
b21lV29yazERMA8GA1UEAxMIWjhXSzhENDAwggEiMA0GCSqGSIb3DQEBAQUAA4IB
DwAwggEKAoIBAQDRJX/J0ZP+KIL5hapKCQZxq3ESKMCvWCV+wx7LVdNgOGu5JFS7
Iqwrr/NQS5305oy7c3RR/7AcHczSfZUPQ8ukBXKs2pd+6emlqGBTEURTl0sGXvej
3Vfbz/9e8/tdKcqBDv3rWMGknqcp0oZJ+dQU/NsfNDWw5gu6k8U9wipqqLdx5kcu
w8vNM/eQ4QRxeQx/adtuJ4+WJnVuLAqYcu0TFOqrwqb1kdx21bTQdkhPecXBHJiD
RRQZO1WeEd8PippwmJ7JgFWcmdK6yiZRjgMIp4iTEZEf1rvnd2AFouKN7dx7Af6t
vBEulG6UHt3TPAr+dySo/4o9Pl4x2YzYM/OhAgMBAAGjgd8wgdwwCQYDVR0TBAIw
ADAdBgNVHQ4EFgQUzLXsdRG7Nbc3ePPiGxH6mypWqcYwga8GA1UdIwSBpzCBpIAU
4sI6oUcSg5dRqBNRhIWd5upyFWehgYCkfjB8MQswCQYDVQQGEwJIVTERMA8GA1UE
CBMIQnVkYXBlc3QxETAPBgNVBAcTCEJ1ZGFwZXN0MRwwGgYDVQQKExNDcnlTeVMg
TGFiIEhvbWVXb3JrMRwwGgYDVQQLExNDcnlTeVMgTGFiIEhvbWVXb3JrMQswCQYD
VQQDEwJDQYIJAPodXQjT+PVdMA0GCSqGSIb3DQEBDAUAA4ICfgAsqmTX3GZQHeNU
Edh4fLR/gyG4iYjftlytxsaN2rjp2C1QOR7s0U4IrbHDB1/c2Ke/oa0a0rij2KpU
ubNjqBeXLpkd+xBL2cIBWiBD0HbM/FoFTVwbxVf9lcdTyOaqJzpfPVhazo4x40Gm
Y9k6r4NkNym7vWovUyLSo4woHtNfelbvHEx4Wi73csomT3JYUF5tBMohY4h2d76i
m07Alp3h8FVXwPh7iJ6CoZ7RGFNagoMitIcftWCA2tq53/UW9Z6TP14pvkLSAC35
VqTfmSHuxEWWbLhPsz4qZoATzF2vraOZeghriQPe6BAAxhiI7L1XxWqjH6LD4MhX
ISecyba3QMRCMjaXlvhFxh7tFQU2nmsOXRj6/8CudhGH2CaXfz1lnEVqtscIlNOe
710+U5QAbbxia8Cv+LUhB4MHQq3LjoGVJ3ZUv6h5CM6kWAXtuxU6kqv0PGmdIRg+
ZR8gU2HPJMwog+XXEmAHzxcmzJ7DPRSOghDofgWxQloQAA1CAHg86txIhbsVVf1s
C9dbqwbaIFJZHxX5J/Qh7SnDjhpnG6yNFrBroC3Jb6pnEILXi61W5iwzJSMMbONL
jRmizNXMRJX62trXgh7vdZ3O4a3XlosNobBsSYo2xv5YhSrhe4gmXhkqKkZ8Kq25
4Zp6Oo1x6937EJwlkEoMixG5PYkbCh5Fg74wYl+iFSnr0TFutvsYek8i/1pXzl8f
rA++ljBgMRVjKDqTih1SDJ4I6wzlf0Gh1Ybl8STAps4opL0aVV0coVCXQTfULXPF
klTIQ9tTVhZfJ3bahXdHsTmF/QCoRrvwHbJVahJ6jBYRWu9iAMSZRSTqorR0W/29
j3ko
-----END CERTIFICATE-----
