Certificate:
    Data:
        Version: 3 (0x2)
        Serial Number:
            96:26:6f:c1:e3:3a:3b:f5:3a:65:e1:56
        Signature Algorithm: sha256WithRSAEncryption
        Issuer: C=HU, ST=Budapest, L=Budapest, O=CrySyS Lab HomeWork, OU=CrySyS Lab HomeWork, CN=CA
        Validity
            Not Before: Jan  1 01:01:01 2016 GMT
            Not After : Aug 10 00:08:56 2023 GMT
        Subject: C=HU, ST=Budapest, O=CrySyS Lab HomeWork, OU=CrySyS Lab HomeWork, CN=Z8WK8D
        Subject Public Key Info:
            Public Key Algorithm: rsaEncryption
                RSA Public-Key: (2048 bit)
                Modulus:
                    00:d6:64:c8:b0:1b:b1:f3:58:8a:f3:76:73:3a:73:
                    04:b9:a8:67:71:32:1c:64:d9:ed:e3:41:69:27:36:
                    87:86:6c:f9:d6:39:f9:55:5e:22:c3:50:be:ad:8e:
                    91:bd:7a:9c:7f:6d:dd:da:b0:b5:07:0d:fe:1c:65:
                    d9:77:89:16:86:58:e3:31:c1:55:94:b4:26:77:e1:
                    ae:62:af:b3:70:7d:9b:a3:52:45:26:b9:c9:85:5b:
                    c8:60:8d:aa:f4:82:da:ed:63:b9:e3:f8:bc:30:db:
                    3a:76:89:77:40:1f:95:2a:d2:b7:39:90:06:98:06:
                    08:4e:39:ee:1a:be:eb:bf:f0:6b:5e:fe:b0:44:26:
                    e0:40:bd:cf:8f:ab:a2:a2:fc:8f:e7:be:b6:a9:07:
                    56:a4:cd:eb:8d:ed:91:08:8e:07:be:64:a8:59:dc:
                    35:31:33:26:26:3a:0c:d3:64:b3:8d:75:fb:3b:5c:
                    b9:73:3e:c3:51:88:c2:ed:d7:1c:3f:ed:7d:25:18:
                    39:86:01:87:a5:94:66:4d:a3:10:21:69:c3:ab:a6:
                    1b:b9:73:5b:0d:6b:0c:8b:62:b6:4f:42:d0:a6:d8:
                    b4:de:76:04:c4:f4:52:0d:24:ab:7f:0e:5e:69:17:
                    0e:95:bb:81:6d:a7:7e:29:31:fc:6b:db:05:35:56:
                    32:d5
                Exponent: 65537 (0x10001)
        X509v3 extensions:
            X509v3 Basic Constraints: 
                CA:FALSE
            X509v3 Subject Key Identifier: 
                D8:EE:F8:FF:26:37:13:17:47:9E:1D:31:74:36:41:2C:0E:A3:88:D3
            X509v3 Authority Key Identifier: 
                keyid:E2:C2:3A:A1:47:12:83:97:51:A8:13:51:84:85:9D:E6:EA:72:15:67
                DirName:/C=HU/ST=Budapest/L=Budapest/O=CrySyS Lab HomeWork/OU=CrySyS Lab HomeWork/CN=CA
                serial:FA:1D:5D:08:D3:F8:F5:5D

    Signature Algorithm: sha256WithRSAEncryption
         66:15:54:a2:32:92:95:d8:d3:e8:87:aa:4a:54:96:a6:df:8a:
         86:b6:a4:10:41:1b:b4:b2:05:52:d2:ca:b5:7e:26:71:d1:36:
         2e:9a:a3:ef:57:91:96:f8:b2:a2:6b:13:7d:a0:d9:01:d0:20:
         9c:f5:fc:f9:94:32:2d:c6:f3:3f:38:11:70:bc:9a:22:0a:65:
         72:59:77:b1:32:39:78:2b:2b:b7:ca:de:fa:54:b4:88:43:1f:
         38:ca:a7:9d:57:7f:ca:a1:5d:10:a6:21:8e:9c:da:72:05:65:
         65:8a:ce:4f:5c:ef:70:34:59:62:65:12:6f:44:8c:1b:07:5a:
         c6:73:a5:7f:90:9d:25:19:14:f2:7a:93:17:b3:c7:d3:d2:f8:
         68:55:b5:fd:a8:ed:54:80:b2:8c:b7:dc:49:19:d3:93:87:85:
         d1:f6:ff:6e:c1:8b:b7:89:6d:2e:50:72:62:5c:04:4a:48:bd:
         bc:a0:59:51:1e:67:38:4f:c0:c5:50:e4:0a:c1:cf:d6:2b:ae:
         b6:1f:4b:46:99:7c:a3:e1:5c:59:2e:7a:96:b7:af:26:2e:cf:
         62:2a:63:92:b9:28:02:38:33:7b:82:66:61:f9:67:ad:07:27:
         88:8d:25:e8:c2:85:ca:b2:b3:44:ed:63:fe:07:57:e1:e9:29:
         a4:27:5f:d3:cc:3c:ab:38:b3:ac:9f:b0:dd:d1:2b:15:2f:04:
         85:9a:ea:ea:db:b3:8d:67:86:c9:98:90:56:b4:d4:85:54:a6:
         73:b5:0f:38:d4:e0:bf:25:cb:1c:da:36:8d:50:42:7d:93:0d:
         38:1b:dc:c5:e2:b7:78:a2:88:8d:95:5e:d1:09:9d:b8:db:a1:
         b9:4d:0e:cb:7b:01:f5:1c:7e:d9:17:75:19:41:79:e4:c5:4d:
         6b:4e:3e:99:35:75:c5:e8:c4:6d:1e:ac:52:06:6a:3f:26:2a:
         9a:7d:05:e4:57:a1:fb:bc:7a:49:14:64:82:3b:f4:09:26:1c:
         3a:bd:b6:06:9a:5a:53:bc:e8:42:ee:5a:a6:ee:7b:9c:c3:68:
         dc:22:2b:7e:d9:9e:15:67:00:9d:6a:d3:41:b5:cc:2e:bb:99:
         4d:bc:e4:b1:1b:65:b3:3f:a3:d5:01:3e:8e:ce:fc:2a:8d:70:
         f5:16:e9:26:db:cd:e2:70:5f:25:fe:dc:65:b1:76:84:8e:3b:
         dd:1a:6c:ab:27:90:59:d6:b2:ac:77:4c:9a:46:e8:b7:a7:9e:
         9f:05:8b:2c:e3:99:ee:4b:89:71:d4:00:81:b6:c4:e9:51:1e:
         1d:f5:88:ce:dc:dc:5b:1a:c0:c5:0f:81:53:d5:dd:2a:9c:84:
         97:22:79:42:e0:1a:cc:b6:32:ea:3b:3e:5a:27:9a:60:73:19:
         98:d5:d8:51:d2:fe:a2:59:5f:20:34:76:48:a8:71:bc:66:8d:
         c8:84:25:98:b7:f3:93:77:30:33:8c:9d:67:a0:c5:4f:9c:df:
         05:41:00:39:6f:4a:71:a4:f7:ae:8d:56:25:e2:2f:46:7d:70:
         d1:0d:ed:95:3a:80:3d:c6:d9:b2:20:09:34:83:5a:9e:8a:05:
         97:a7:e5:c7:be:45:5e:50:c6:6a:62:5b:40:3f:89:10:be:29:
         31:e0:e3:86:61:4c:4f:ae:33:b3:e9:7e:f7:40:9c:d8:2c:13:
         91:8f:7c:b9:76:5d:a4
-----BEGIN CERTIFICATE-----
MIIFzTCCAzigAwIBAgINAJYmb8HjOjv1OmXhVjANBgkqhkiG9w0BAQsFADB8MQsw
CQYDVQQGEwJIVTERMA8GA1UECBMIQnVkYXBlc3QxETAPBgNVBAcTCEJ1ZGFwZXN0
MRwwGgYDVQQKExNDcnlTeVMgTGFiIEhvbWVXb3JrMRwwGgYDVQQLExNDcnlTeVMg
TGFiIEhvbWVXb3JrMQswCQYDVQQDEwJDQTAeFw0xNjAxMDEwMTAxMDFaFw0yMzA4
MTAwMDA4NTZaMG0xCzAJBgNVBAYTAkhVMREwDwYDVQQIEwhCdWRhcGVzdDEcMBoG
A1UEChMTQ3J5U3lTIExhYiBIb21lV29yazEcMBoGA1UECxMTQ3J5U3lTIExhYiBI
b21lV29yazEPMA0GA1UEAxMGWjhXSzhEMIIBIjANBgkqhkiG9w0BAQEFAAOCAQ8A
MIIBCgKCAQEA1mTIsBux81iK83ZzOnMEuahncTIcZNnt40FpJzaHhmz51jn5VV4i
w1C+rY6RvXqcf23d2rC1Bw3+HGXZd4kWhljjMcFVlLQmd+GuYq+zcH2bo1JFJrnJ
hVvIYI2q9ILa7WO54/i8MNs6dol3QB+VKtK3OZAGmAYITjnuGr7rv/BrXv6wRCbg
QL3Pj6uiovyP5762qQdWpM3rje2RCI4HvmSoWdw1MTMmJjoM02SzjXX7O1y5cz7D
UYjC7dccP+19JRg5hgGHpZRmTaMQIWnDq6YbuXNbDWsMi2K2T0LQpti03nYExPRS
DSSrfw5eaRcOlbuBbad+KTH8a9sFNVYy1QIDAQABo4HfMIHcMAkGA1UdEwQCMAAw
HQYDVR0OBBYEFNju+P8mNxMXR54dMXQ2QSwOo4jTMIGvBgNVHSMEgacwgaSAFOLC
OqFHEoOXUagTUYSFnebqchVnoYGApH4wfDELMAkGA1UEBhMCSFUxETAPBgNVBAgT
CEJ1ZGFwZXN0MREwDwYDVQQHEwhCdWRhcGVzdDEcMBoGA1UEChMTQ3J5U3lTIExh
YiBIb21lV29yazEcMBoGA1UECxMTQ3J5U3lTIExhYiBIb21lV29yazELMAkGA1UE
AxMCQ0GCCQD6HV0I0/j1XTANBgkqhkiG9w0BAQsFAAOCAn4AZhVUojKSldjT6Ieq
SlSWpt+KhrakEEEbtLIFUtLKtX4mcdE2Lpqj71eRlviyomsTfaDZAdAgnPX8+ZQy
LcbzPzgRcLyaIgplcll3sTI5eCsrt8re+lS0iEMfOMqnnVd/yqFdEKYhjpzacgVl
ZYrOT1zvcDRZYmUSb0SMGwdaxnOlf5CdJRkU8nqTF7PH09L4aFW1/ajtVICyjLfc
SRnTk4eF0fb/bsGLt4ltLlByYlwESki9vKBZUR5nOE/AxVDkCsHP1iuuth9LRpl8
o+FcWS56lrevJi7PYipjkrkoAjgze4JmYflnrQcniI0l6MKFyrKzRO1j/gdX4ekp
pCdf08w8qzizrJ+w3dErFS8EhZrq6tuzjWeGyZiQVrTUhVSmc7UPONTgvyXLHNo2
jVBCfZMNOBvcxeK3eKKIjZVe0QmduNuhuU0Oy3sB9Rx+2Rd1GUF55MVNa04+mTV1
xejEbR6sUgZqPyYqmn0F5Feh+7x6SRRkgjv0CSYcOr22BppaU7zoQu5apu57nMNo
3CIrftmeFWcAnWrTQbXMLruZTbzksRtlsz+j1QE+js78Ko1w9RbpJtvN4nBfJf7c
ZbF2hI473RpsqyeQWdayrHdMmkbot6eenwWLLOOZ7kuJcdQAgbbE6VEeHfWIztzc
WxrAxQ+BU9XdKpyElyJ5QuAazLYy6js+WieaYHMZmNXYUdL+ollfIDR2SKhxvGaN
yIQlmLfzk3cwM4ydZ6DFT5zfBUEAOW9KcaT3ro1WJeIvRn1w0Q3tlTqAPcbZsiAJ
NINanooFl6flx75FXlDGamJbQD+JEL4pMeDjhmFMT64zs+l+90Cc2CwTkY98uXZd
pA==
-----END CERTIFICATE-----
